target datalayout = "e-m:e-p270:32:32-p271:32:32-p272:64:64-i64:64-i128:128-f80:128-n8:16:32:64-S128"
target triple = "x86_64-pc-linux-gnu"

; Function Attrs: nounwind uwtable
define internal zeroext i16 @FomLabV2ToLabV4(i16 noundef zeroext %0) #0 {
  %2 = alloca i16, align 2
  %3 = alloca i16, align 2
  %4 = alloca i32, align 4
  store i16 %0, ptr %3, align 2
  %5 = load i16, ptr %3, align 2
  %6 = zext i16 %5 to i32
  %7 = shl i32 %6, 8
  %8 = load i16, ptr %3, align 2
  %9 = zext i16 %8 to i32
  %10 = or i32 %7, %9
  %11 = ashr i32 %10, 8
  store i32 %11, ptr %4, align 4
  %12 = load i32, ptr %4, align 4
  %13 = icmp sgt i32 %12, 65535
  br i1 %13, label %14, label %15

14:                                               ; preds = %1
  store i16 -1, ptr %2, align 2
  br label %18

15:                                               ; preds = %1
  %16 = load i32, ptr %4, align 4
  %17 = trunc i32 %16 to i16
  store i16 %17, ptr %2, align 2
  br label %18

18:                                               ; preds = %15, %14
  %19 = load i16, ptr %2, align 2
  ret i16 %19
}

; Function Attrs: nounwind uwtable
define internal ptr @UnrollLabV2_16(ptr noundef %0, ptr noundef %1, ptr noundef %2, i32 noundef %3) #0 {
  %5 = alloca ptr, align 8
  %6 = alloca ptr, align 8
  %7 = alloca ptr, align 8
  %8 = alloca i32, align 4
  store ptr %0, ptr %5, align 8
  store ptr %1, ptr %6, align 8
  store ptr %2, ptr %7, align 8
  store i32 %3, ptr %8, align 4
  %9 = load ptr, ptr %7, align 8
  %10 = load i16, ptr %9, align 2
  %11 = call zeroext i16 @FomLabV2ToLabV4(i16 noundef zeroext %10)
  %12 = load ptr, ptr %6, align 8
  %13 = getelementptr inbounds i16, ptr %12, i64 0
  store i16 %11, ptr %13, align 2
  %14 = load ptr, ptr %7, align 8
  %15 = getelementptr inbounds i8, ptr %14, i64 2
  store ptr %15, ptr %7, align 8
  %16 = load ptr, ptr %7, align 8
  %17 = load i16, ptr %16, align 2
  %18 = call zeroext i16 @FomLabV2ToLabV4(i16 noundef zeroext %17)
  %19 = load ptr, ptr %6, align 8
  %20 = getelementptr inbounds i16, ptr %19, i64 1
  store i16 %18, ptr %20, align 2
  %21 = load ptr, ptr %7, align 8
  %22 = getelementptr inbounds i8, ptr %21, i64 2
  store ptr %22, ptr %7, align 8
  %23 = load ptr, ptr %7, align 8
  %24 = load i16, ptr %23, align 2
  %25 = call zeroext i16 @FomLabV2ToLabV4(i16 noundef zeroext %24)
  %26 = load ptr, ptr %6, align 8
  %27 = getelementptr inbounds i16, ptr %26, i64 2
  store i16 %25, ptr %27, align 2
  %28 = load ptr, ptr %7, align 8
  %29 = getelementptr inbounds i8, ptr %28, i64 2
  store ptr %29, ptr %7, align 8
  %30 = load ptr, ptr %7, align 8
  ret ptr %30
}