; Function Attrs: mustprogress nofree norecurse nosync nounwind willreturn memory(argmem: readwrite) uwtable
define internal nonnull ptr @UnrollLabV2_16(ptr nocapture readnone %0, ptr nocapture noundef writeonly %1, ptr noundef readonly %2, i32 %3) #3 {
  %5 = load i16, ptr %2, align 2
  %6 = lshr i16 %5, 8
  %7 = or i16 %6, %5
  store i16 %7, ptr %1, align 2
  %8 = getelementptr inbounds i8, ptr %2, i64 2
  %9 = load i16, ptr %8, align 2
  %10 = lshr i16 %9, 8
  %11 = or i16 %10, %9
  %12 = getelementptr inbounds i8, ptr %1, i64 2
  store i16 %11, ptr %12, align 2
  %13 = getelementptr inbounds i8, ptr %2, i64 4
  %14 = load i16, ptr %13, align 2
  %15 = lshr i16 %14, 8
  %16 = or i16 %15, %14
  %17 = getelementptr inbounds i8, ptr %1, i64 4
  store i16 %16, ptr %17, align 2
  %18 = getelementptr inbounds i8, ptr %2, i64 6
  ret ptr %18
}